target datalayout = "e-m:e-p270:32:32-p271:32:32-p272:64:64-i64:64-i128:128-f80:128-n8:16:32:64-S128"
target triple = "x86_64-pc-linux-gnu"

@hf_rsl_ie_id = internal global i32 0, align 4
@hf_rsl_ie_length = internal global i32 0, align 4
@hf_rsl_phy_ctx = internal global i32 0, align 4
@hf_rsl_phy_ctx_ie_id = internal global i32 0, align 4
@hf_rsl_phy_ctx_ext_rand_access = internal global i32 0, align 4
@hf_rsl_phy_ctx_rx_lvl_ext = internal global i32 0, align 4
@ett_ie_phy_ctx = internal global i32 0, align 4
@ett_phy_ctx_ie = internal global i32 0, align 4
@ett_phy_ctx_ie_ext_rand_access = internal global i32 0, align 4
@ett_phy_ctx_rxlvl_ext = internal global i32 0, align 4
@global_rsl_dissect_phy_ctx_inf = internal global i8 1, align 1
@.str.768 = private unnamed_addr constant [21 x i8] c"Physical Context IE \00", align 1
@.str.769 = private unnamed_addr constant [28 x i8] c"Physical Context dissection\00", align 1
@.str.770 = private unnamed_addr constant [18 x i8] c"Ext RandAccess IE\00", align 1
@.str.772 = private unnamed_addr constant [51 x i8] c"RxLevel Rxt (called in Pre-processed Measurements)\00", align 1

; Function Attrs: null_pointer_is_valid sspstrong uwtable
define internal i32 @dissect_rsl_phy_ctx_rx_lvl_ext(ptr noundef %0, ptr noundef %1, ptr noundef %2, i32 noundef %3) #0 {
  %5 = alloca ptr, align 8
  %6 = alloca ptr, align 8
  %7 = alloca ptr, align 8
  %8 = alloca i32, align 4
  %9 = alloca ptr, align 8
  %10 = alloca ptr, align 8
  %11 = alloca i32, align 4
  store ptr %0, ptr %5, align 8
  store ptr %1, ptr %6, align 8
  store ptr %2, ptr %7, align 8
  store i32 %3, ptr %8, align 4
  call void @llvm.lifetime.start.p0(i64 8, ptr %9) #6
  call void @llvm.lifetime.start.p0(i64 8, ptr %10) #6
  call void @llvm.lifetime.start.p0(i64 4, ptr %11) #6
  %12 = load ptr, ptr %7, align 8
  %13 = load ptr, ptr %5, align 8
  %14 = load i32, ptr %8, align 4
  %15 = load i32, ptr @ett_phy_ctx_rxlvl_ext, align 4
  %16 = call ptr @proto_tree_add_subtree(ptr noundef %12, ptr noundef %13, i32 noundef %14, i32 noundef 0, i32 noundef %15, ptr noundef %10, ptr noundef @.str.772)
  store ptr %16, ptr %9, align 8
  %17 = load ptr, ptr %9, align 8
  %18 = load i32, ptr @hf_rsl_phy_ctx_ie_id, align 4
  %19 = load ptr, ptr %5, align 8
  %20 = load i32, ptr %8, align 4
  %21 = call ptr @proto_tree_add_item(ptr noundef %17, i32 noundef %18, ptr noundef %19, i32 noundef %20, i32 noundef 1, i32 noundef 0)
  %22 = load i32, ptr %8, align 4
  %23 = add i32 %22, 1
  store i32 %23, ptr %8, align 4
  %24 = load ptr, ptr %5, align 8
  %25 = load i32, ptr %8, align 4
  %26 = call zeroext i8 @tvb_get_uint8(ptr noundef %24, i32 noundef %25)
  %27 = zext i8 %26 to i32
  store i32 %27, ptr %11, align 4
  %28 = load ptr, ptr %10, align 8
  %29 = load i32, ptr %11, align 4
  %30 = add i32 %29, 2
  call void @proto_item_set_len(ptr noundef %28, i32 noundef %30)
  %31 = load ptr, ptr %9, align 8
  %32 = load i32, ptr @hf_rsl_ie_length, align 4
  %33 = load ptr, ptr %5, align 8
  %34 = load i32, ptr %8, align 4
  %35 = call ptr @proto_tree_add_item(ptr noundef %31, i32 noundef %32, ptr noundef %33, i32 noundef %34, i32 noundef 1, i32 noundef 0)
  %36 = load i32, ptr %8, align 4
  %37 = add i32 %36, 1
  store i32 %37, ptr %8, align 4
  %38 = load ptr, ptr %9, align 8
  %39 = load i32, ptr @hf_rsl_phy_ctx_rx_lvl_ext, align 4
  %40 = load ptr, ptr %5, align 8
  %41 = load i32, ptr %8, align 4
  %42 = call ptr @proto_tree_add_item(ptr noundef %38, i32 noundef %39, ptr noundef %40, i32 noundef %41, i32 noundef 1, i32 noundef 0)
  %43 = load i32, ptr %8, align 4
  %44 = add i32 %43, 1
  store i32 %44, ptr %8, align 4
  %45 = load i32, ptr %8, align 4
  call void @llvm.lifetime.end.p0(i64 4, ptr %11) #6
  call void @llvm.lifetime.end.p0(i64 8, ptr %10) #6
  call void @llvm.lifetime.end.p0(i64 8, ptr %9) #6
  ret i32 %45
}

; Function Attrs: null_pointer_is_valid sspstrong uwtable
define internal i32 @dissect_rsl_phy_ctx_ext_rand_access(ptr noundef %0, ptr noundef %1, ptr noundef %2, i32 noundef %3) #0 {
  %5 = alloca ptr, align 8
  %6 = alloca ptr, align 8
  %7 = alloca ptr, align 8
  %8 = alloca i32, align 4
  %9 = alloca ptr, align 8
  %10 = alloca ptr, align 8
  %11 = alloca i32, align 4
  store ptr %0, ptr %5, align 8
  store ptr %1, ptr %6, align 8
  store ptr %2, ptr %7, align 8
  store i32 %3, ptr %8, align 4
  call void @llvm.lifetime.start.p0(i64 8, ptr %9) #6
  call void @llvm.lifetime.start.p0(i64 8, ptr %10) #6
  call void @llvm.lifetime.start.p0(i64 4, ptr %11) #6
  %12 = load ptr, ptr %7, align 8
  %13 = load ptr, ptr %5, align 8
  %14 = load i32, ptr %8, align 4
  %15 = load i32, ptr @ett_phy_ctx_ie_ext_rand_access, align 4
  %16 = call ptr @proto_tree_add_subtree(ptr noundef %12, ptr noundef %13, i32 noundef %14, i32 noundef 0, i32 noundef %15, ptr noundef %10, ptr noundef @.str.770)
  store ptr %16, ptr %9, align 8
  %17 = load ptr, ptr %9, align 8
  %18 = load i32, ptr @hf_rsl_phy_ctx_ie_id, align 4
  %19 = load ptr, ptr %5, align 8
  %20 = load i32, ptr %8, align 4
  %21 = call ptr @proto_tree_add_item(ptr noundef %17, i32 noundef %18, ptr noundef %19, i32 noundef %20, i32 noundef 1, i32 noundef 0)
  %22 = load i32, ptr %8, align 4
  %23 = add i32 %22, 1
  store i32 %23, ptr %8, align 4
  %24 = load ptr, ptr %5, align 8
  %25 = load i32, ptr %8, align 4
  %26 = call zeroext i8 @tvb_get_uint8(ptr noundef %24, i32 noundef %25)
  %27 = zext i8 %26 to i32
  store i32 %27, ptr %11, align 4
  %28 = load ptr, ptr %10, align 8
  %29 = load i32, ptr %11, align 4
  %30 = add i32 %29, 2
  call void @proto_item_set_len(ptr noundef %28, i32 noundef %30)
  %31 = load ptr, ptr %9, align 8
  %32 = load i32, ptr @hf_rsl_ie_length, align 4
  %33 = load ptr, ptr %5, align 8
  %34 = load i32, ptr %8, align 4
  %35 = call ptr @proto_tree_add_item(ptr noundef %31, i32 noundef %32, ptr noundef %33, i32 noundef %34, i32 noundef 1, i32 noundef 0)
  %36 = load i32, ptr %8, align 4
  %37 = add i32 %36, 1
  store i32 %37, ptr %8, align 4
  %38 = load ptr, ptr %9, align 8
  %39 = load i32, ptr @hf_rsl_phy_ctx_ext_rand_access, align 4
  %40 = load ptr, ptr %5, align 8
  %41 = load i32, ptr %8, align 4
  %42 = load i32, ptr %11, align 4
  %43 = call ptr @proto_tree_add_item(ptr noundef %38, i32 noundef %39, ptr noundef %40, i32 noundef %41, i32 noundef %42, i32 noundef 0)
  %44 = load i32, ptr %8, align 4
  %45 = load i32, ptr %11, align 4
  %46 = add i32 %44, %45
  store i32 %46, ptr %8, align 4
  %47 = load i32, ptr %8, align 4
  call void @llvm.lifetime.end.p0(i64 4, ptr %11) #6
  call void @llvm.lifetime.end.p0(i64 8, ptr %10) #6
  call void @llvm.lifetime.end.p0(i64 8, ptr %9) #6
  ret i32 %47
}

; Function Attrs: null_pointer_is_valid sspstrong uwtable
define internal i32 @dissect_phy_ctx_ie(ptr noundef %0, ptr noundef %1, ptr noundef %2, i32 noundef %3, i8 noundef zeroext %4) #0 {
  %6 = alloca ptr, align 8
  %7 = alloca ptr, align 8
  %8 = alloca ptr, align 8
  %9 = alloca i32, align 4
  %10 = alloca i8, align 1
  %11 = alloca ptr, align 8
  %12 = alloca i8, align 1
  store ptr %0, ptr %6, align 8
  store ptr %1, ptr %7, align 8
  store ptr %2, ptr %8, align 8
  store i32 %3, ptr %9, align 4
  store i8 %4, ptr %10, align 1
  call void @llvm.lifetime.start.p0(i64 8, ptr %11) #6
  call void @llvm.lifetime.start.p0(i64 1, ptr %12) #6
  %13 = load ptr, ptr %8, align 8
  %14 = load ptr, ptr %6, align 8
  %15 = load i32, ptr %9, align 4
  %16 = load i8, ptr %10, align 1
  %17 = zext i8 %16 to i32
  %18 = load i32, ptr @ett_phy_ctx_ie, align 4
  %19 = call ptr @proto_tree_add_subtree(ptr noundef %13, ptr noundef %14, i32 noundef %15, i32 noundef %17, i32 noundef %18, ptr noundef null, ptr noundef @.str.769)
  store ptr %19, ptr %11, align 8
  %20 = load ptr, ptr %6, align 8
  %21 = load i32, ptr %9, align 4
  %22 = call zeroext i8 @tvb_get_uint8(ptr noundef %20, i32 noundef %21)
  store i8 %22, ptr %12, align 1
  %23 = load i8, ptr %12, align 1
  %24 = zext i8 %23 to i32
  switch i32 %24, label %58 [
    i32 66, label %25
    i32 67, label %41
    i32 69, label %52
  ]

25:                                               ; preds = %5
  %26 = load ptr, ptr %6, align 8
  %27 = load ptr, ptr %7, align 8
  %28 = load ptr, ptr %11, align 8
  %29 = load i32, ptr %9, align 4
  %30 = call i32 @dissect_rsl_phy_ctx_ext_rand_access(ptr noundef %26, ptr noundef %27, ptr noundef %28, i32 noundef %29)
  store i32 %30, ptr %9, align 4
  %31 = load ptr, ptr %6, align 8
  %32 = load ptr, ptr %7, align 8
  %33 = load ptr, ptr %11, align 8
  %34 = load i32, ptr %9, align 4
  %35 = call i32 @dissect_rsl_phy_ctx_ab_rx_lvl_err_bits(ptr noundef %31, ptr noundef %32, ptr noundef %33, i32 noundef %34)
  store i32 %35, ptr %9, align 4
  %36 = load ptr, ptr %6, align 8
  %37 = load ptr, ptr %7, align 8
  %38 = load ptr, ptr %11, align 8
  %39 = load i32, ptr %9, align 4
  %40 = call i32 @dissect_rsl_phy_ctx_rx_lvl_ext(ptr noundef %36, ptr noundef %37, ptr noundef %38, i32 noundef %39)
  store i32 %40, ptr %9, align 4
  br label %59

41:                                               ; preds = %5
  %42 = load ptr, ptr %6, align 8
  %43 = load ptr, ptr %7, align 8
  %44 = load ptr, ptr %11, align 8
  %45 = load i32, ptr %9, align 4
  %46 = call i32 @dissect_rsl_phy_ctx_ab_rx_lvl_err_bits(ptr noundef %42, ptr noundef %43, ptr noundef %44, i32 noundef %45)
  store i32 %46, ptr %9, align 4
  %47 = load ptr, ptr %6, align 8
  %48 = load ptr, ptr %7, align 8
  %49 = load ptr, ptr %11, align 8
  %50 = load i32, ptr %9, align 4
  %51 = call i32 @dissect_rsl_phy_ctx_rx_lvl_ext(ptr noundef %47, ptr noundef %48, ptr noundef %49, i32 noundef %50)
  store i32 %51, ptr %9, align 4
  br label %59

52:                                               ; preds = %5
  %53 = load ptr, ptr %6, align 8
  %54 = load ptr, ptr %7, align 8
  %55 = load ptr, ptr %11, align 8
  %56 = load i32, ptr %9, align 4
  %57 = call i32 @dissect_rsl_phy_ctx_rx_lvl_ext(ptr noundef %53, ptr noundef %54, ptr noundef %55, i32 noundef %56)
  store i32 %57, ptr %9, align 4
  br label %59

58:                                               ; preds = %5
  br label %59

59:                                               ; preds = %58, %52, %41, %25
  %60 = load i32, ptr %9, align 4
  call void @llvm.lifetime.end.p0(i64 1, ptr %12) #6
  call void @llvm.lifetime.end.p0(i64 8, ptr %11) #6
  ret i32 %60
}

; Function Attrs: null_pointer_is_valid sspstrong uwtable
define internal i32 @dissect_rsl_ie_phy_ctx(ptr noundef %0, ptr noundef %1, ptr noundef %2, i32 noundef %3, i1 noundef zeroext %4) #0 {
  %6 = alloca i32, align 4
  %7 = alloca ptr, align 8
  %8 = alloca ptr, align 8
  %9 = alloca ptr, align 8
  %10 = alloca i32, align 4
  %11 = alloca i8, align 1
  %12 = alloca ptr, align 8
  %13 = alloca ptr, align 8
  %14 = alloca i32, align 4
  %15 = alloca i8, align 1
  %16 = alloca i32, align 4
  store ptr %0, ptr %7, align 8
  store ptr %1, ptr %8, align 8
  store ptr %2, ptr %9, align 8
  store i32 %3, ptr %10, align 4
  %17 = zext i1 %4 to i8
  store i8 %17, ptr %11, align 1
  call void @llvm.lifetime.start.p0(i64 8, ptr %12) #6
  call void @llvm.lifetime.start.p0(i64 8, ptr %13) #6
  call void @llvm.lifetime.start.p0(i64 4, ptr %14) #6
  call void @llvm.lifetime.start.p0(i64 1, ptr %15) #6
  %18 = load i8, ptr %11, align 1, !range !6, !noundef !7
  %19 = trunc i8 %18 to i1
  %20 = zext i1 %19 to i32
  %21 = icmp eq i32 %20, 0
  br i1 %21, label %22, label %32

22:                                               ; preds = %5
  %23 = load ptr, ptr %7, align 8
  %24 = load i32, ptr %10, align 4
  %25 = call zeroext i8 @tvb_get_uint8(ptr noundef %23, i32 noundef %24)
  store i8 %25, ptr %15, align 1
  %26 = load i8, ptr %15, align 1
  %27 = zext i8 %26 to i32
  %28 = icmp ne i32 %27, 16
  br i1 %28, label %29, label %31

29:                                               ; preds = %22
  %30 = load i32, ptr %10, align 4
  store i32 %30, ptr %6, align 4
  store i32 1, ptr %16, align 4
  br label %81

31:                                               ; preds = %22
  br label %32

32:                                               ; preds = %31, %5
  %33 = load ptr, ptr %9, align 8
  %34 = load ptr, ptr %7, align 8
  %35 = load i32, ptr %10, align 4
  %36 = load i32, ptr @ett_ie_phy_ctx, align 4
  %37 = call ptr @proto_tree_add_subtree(ptr noundef %33, ptr noundef %34, i32 noundef %35, i32 noundef 0, i32 noundef %36, ptr noundef %12, ptr noundef @.str.768)
  store ptr %37, ptr %13, align 8
  %38 = load ptr, ptr %13, align 8
  %39 = load i32, ptr @hf_rsl_ie_id, align 4
  %40 = load ptr, ptr %7, align 8
  %41 = load i32, ptr %10, align 4
  %42 = call ptr @proto_tree_add_item(ptr noundef %38, i32 noundef %39, ptr noundef %40, i32 noundef %41, i32 noundef 1, i32 noundef 0)
  %43 = load i32, ptr %10, align 4
  %44 = add i32 %43, 1
  store i32 %44, ptr %10, align 4
  %45 = load ptr, ptr %7, align 8
  %46 = load i32, ptr %10, align 4
  %47 = call zeroext i8 @tvb_get_uint8(ptr noundef %45, i32 noundef %46)
  %48 = zext i8 %47 to i32
  store i32 %48, ptr %14, align 4
  %49 = load ptr, ptr %12, align 8
  %50 = load i32, ptr %14, align 4
  %51 = add i32 %50, 2
  call void @proto_item_set_len(ptr noundef %49, i32 noundef %51)
  %52 = load ptr, ptr %13, align 8
  %53 = load i32, ptr @hf_rsl_ie_length, align 4
  %54 = load ptr, ptr %7, align 8
  %55 = load i32, ptr %10, align 4
  %56 = call ptr @proto_tree_add_item(ptr noundef %52, i32 noundef %53, ptr noundef %54, i32 noundef %55, i32 noundef 1, i32 noundef 0)
  %57 = load i32, ptr %10, align 4
  %58 = add i32 %57, 1
  store i32 %58, ptr %10, align 4
  %59 = load i8, ptr @global_rsl_dissect_phy_ctx_inf, align 1, !range !6, !noundef !7
  %60 = trunc i8 %59 to i1
  br i1 %60, label %61, label %69

61:                                               ; preds = %32
  %62 = load ptr, ptr %7, align 8
  %63 = load ptr, ptr %8, align 8
  %64 = load ptr, ptr %13, align 8
  %65 = load i32, ptr %10, align 4
  %66 = load i32, ptr %14, align 4
  %67 = trunc i32 %66 to i8
  %68 = call i32 @dissect_phy_ctx_ie(ptr noundef %62, ptr noundef %63, ptr noundef %64, i32 noundef %65, i8 noundef zeroext %67)
  store i32 %68, ptr %10, align 4
  br label %79

69:                                               ; preds = %32
  %70 = load ptr, ptr %13, align 8
  %71 = load i32, ptr @hf_rsl_phy_ctx, align 4
  %72 = load ptr, ptr %7, align 8
  %73 = load i32, ptr %10, align 4
  %74 = load i32, ptr %14, align 4
  %75 = call ptr @proto_tree_add_item(ptr noundef %70, i32 noundef %71, ptr noundef %72, i32 noundef %73, i32 noundef %74, i32 noundef 0)
  %76 = load i32, ptr %10, align 4
  %77 = load i32, ptr %14, align 4
  %78 = add i32 %76, %77
  store i32 %78, ptr %10, align 4
  br label %79

79:                                               ; preds = %69, %61
  %80 = load i32, ptr %10, align 4
  store i32 %80, ptr %6, align 4
  store i32 1, ptr %16, align 4
  br label %81

81:                                               ; preds = %79, %29
  call void @llvm.lifetime.end.p0(i64 1, ptr %15) #6
  call void @llvm.lifetime.end.p0(i64 4, ptr %14) #6
  call void @llvm.lifetime.end.p0(i64 8, ptr %13) #6
  call void @llvm.lifetime.end.p0(i64 8, ptr %12) #6
  %82 = load i32, ptr %6, align 4
  ret i32 %82
}