; Function Attrs: null_pointer_is_valid sspstrong uwtable
define internal fastcc i32 @dissect_rsl_ie_phy_ctx(ptr noundef %0, ptr noundef %1, i32 noundef %2) unnamed_addr #0 {
  %4 = alloca ptr, align 8
  %5 = alloca ptr, align 8
  %6 = alloca ptr, align 8
  %7 = alloca ptr, align 8
  %8 = alloca ptr, align 8
  call void @llvm.lifetime.start.p0(i64 8, ptr nonnull %8) #6
  %9 = tail call zeroext i8 @tvb_get_uint8(ptr noundef %0, i32 noundef %2)
  %.not = icmp eq i8 %9, 16
  br i1 %.not, label %10, label %dissect_phy_ctx_ie.exit

10:                                               ; preds = %3
  %11 = load i32, ptr @ett_ie_phy_ctx, align 4
  %12 = call ptr @proto_tree_add_subtree(ptr noundef %1, ptr noundef %0, i32 noundef %2, i32 noundef 0, i32 noundef %11, ptr noundef nonnull %8, ptr noundef nonnull @.str.768)
  %13 = load i32, ptr @hf_rsl_ie_id, align 4
  %14 = call ptr @proto_tree_add_item(ptr noundef %12, i32 noundef %13, ptr noundef %0, i32 noundef %2, i32 noundef 1, i32 noundef 0)
  %15 = add i32 %2, 1
  %16 = call zeroext i8 @tvb_get_uint8(ptr noundef %0, i32 noundef %15)
  %17 = zext i8 %16 to i32
  %18 = load ptr, ptr %8, align 8
  %19 = add nuw nsw i32 %17, 2
  call void @proto_item_set_len(ptr noundef %18, i32 noundef %19)
  %20 = load i32, ptr @hf_rsl_ie_length, align 4
  %21 = call ptr @proto_tree_add_item(ptr noundef %12, i32 noundef %20, ptr noundef %0, i32 noundef %15, i32 noundef 1, i32 noundef 0)
  %22 = add i32 %2, 2
  %23 = load i8, ptr @global_rsl_dissect_phy_ctx_inf, align 1, !range !6, !noundef !7
  %24 = trunc nuw i8 %23 to i1
  br i1 %24, label %25, label %94

25:                                               ; preds = %10
  %26 = load i32, ptr @ett_phy_ctx_ie, align 4
  %27 = call ptr @proto_tree_add_subtree(ptr noundef %12, ptr noundef %0, i32 noundef %22, i32 noundef %17, i32 noundef %26, ptr noundef null, ptr noundef nonnull @.str.769)
  %28 = call zeroext i8 @tvb_get_uint8(ptr noundef %0, i32 noundef %22)
  switch i8 %28, label %dissect_phy_ctx_ie.exit [
    i8 66, label %29
    i8 67, label %61
    i8 69, label %78
  ]

29:                                               ; preds = %25
  call void @llvm.lifetime.start.p0(i64 8, ptr nonnull %7) #6
  %30 = load i32, ptr @ett_phy_ctx_ie_ext_rand_access, align 4
  %31 = call ptr @proto_tree_add_subtree(ptr noundef %27, ptr noundef %0, i32 noundef %22, i32 noundef 0, i32 noundef %30, ptr noundef nonnull %7, ptr noundef nonnull @.str.770)
  %32 = load i32, ptr @hf_rsl_phy_ctx_ie_id, align 4
  %33 = call ptr @proto_tree_add_item(ptr noundef %31, i32 noundef %32, ptr noundef %0, i32 noundef %22, i32 noundef 1, i32 noundef 0)
  %34 = add i32 %2, 3
  %35 = call zeroext i8 @tvb_get_uint8(ptr noundef %0, i32 noundef %34)
  %36 = zext i8 %35 to i32
  %37 = load ptr, ptr %7, align 8
  %38 = add nuw nsw i32 %36, 2
  call void @proto_item_set_len(ptr noundef %37, i32 noundef %38)
  %39 = load i32, ptr @hf_rsl_ie_length, align 4
  %40 = call ptr @proto_tree_add_item(ptr noundef %31, i32 noundef %39, ptr noundef %0, i32 noundef %34, i32 noundef 1, i32 noundef 0)
  %41 = add i32 %2, 4
  %42 = load i32, ptr @hf_rsl_phy_ctx_ext_rand_access, align 4
  %43 = call ptr @proto_tree_add_item(ptr noundef %31, i32 noundef %42, ptr noundef %0, i32 noundef %41, i32 noundef %36, i32 noundef 0)
  %44 = add i32 %41, %36
  call void @llvm.lifetime.end.p0(i64 8, ptr nonnull %7) #6
  %45 = call fastcc i32 @dissect_rsl_phy_ctx_ab_rx_lvl_err_bits(ptr noundef %0, ptr noundef %27, i32 noundef %44)
  call void @llvm.lifetime.start.p0(i64 8, ptr nonnull %6) #6
  %46 = load i32, ptr @ett_phy_ctx_rxlvl_ext, align 4
  %47 = call ptr @proto_tree_add_subtree(ptr noundef %27, ptr noundef %0, i32 noundef %45, i32 noundef 0, i32 noundef %46, ptr noundef nonnull %6, ptr noundef nonnull @.str.772)
  %48 = load i32, ptr @hf_rsl_phy_ctx_ie_id, align 4
  %49 = call ptr @proto_tree_add_item(ptr noundef %47, i32 noundef %48, ptr noundef %0, i32 noundef %45, i32 noundef 1, i32 noundef 0)
  %50 = add i32 %45, 1
  %51 = call zeroext i8 @tvb_get_uint8(ptr noundef %0, i32 noundef %50)
  %52 = zext i8 %51 to i32
  %53 = load ptr, ptr %6, align 8
  %54 = add nuw nsw i32 %52, 2
  call void @proto_item_set_len(ptr noundef %53, i32 noundef %54)
  %55 = load i32, ptr @hf_rsl_ie_length, align 4
  %56 = call ptr @proto_tree_add_item(ptr noundef %47, i32 noundef %55, ptr noundef %0, i32 noundef %50, i32 noundef 1, i32 noundef 0)
  %57 = add i32 %45, 2
  %58 = load i32, ptr @hf_rsl_phy_ctx_rx_lvl_ext, align 4
  %59 = call ptr @proto_tree_add_item(ptr noundef %47, i32 noundef %58, ptr noundef %0, i32 noundef %57, i32 noundef 1, i32 noundef 0)
  %60 = add i32 %45, 3
  call void @llvm.lifetime.end.p0(i64 8, ptr nonnull %6) #6
  br label %dissect_phy_ctx_ie.exit

61:                                               ; preds = %25
  %62 = call fastcc i32 @dissect_rsl_phy_ctx_ab_rx_lvl_err_bits(ptr noundef %0, ptr noundef %27, i32 noundef %22)
  call void @llvm.lifetime.start.p0(i64 8, ptr nonnull %5) #6
  %63 = load i32, ptr @ett_phy_ctx_rxlvl_ext, align 4
  %64 = call ptr @proto_tree_add_subtree(ptr noundef %27, ptr noundef %0, i32 noundef %62, i32 noundef 0, i32 noundef %63, ptr noundef nonnull %5, ptr noundef nonnull @.str.772)
  %65 = load i32, ptr @hf_rsl_phy_ctx_ie_id, align 4
  %66 = call ptr @proto_tree_add_item(ptr noundef %64, i32 noundef %65, ptr noundef %0, i32 noundef %62, i32 noundef 1, i32 noundef 0)
  %67 = add i32 %62, 1
  %68 = call zeroext i8 @tvb_get_uint8(ptr noundef %0, i32 noundef %67)
  %69 = zext i8 %68 to i32
  %70 = load ptr, ptr %5, align 8
  %71 = add nuw nsw i32 %69, 2
  call void @proto_item_set_len(ptr noundef %70, i32 noundef %71)
  %72 = load i32, ptr @hf_rsl_ie_length, align 4
  %73 = call ptr @proto_tree_add_item(ptr noundef %64, i32 noundef %72, ptr noundef %0, i32 noundef %67, i32 noundef 1, i32 noundef 0)
  %74 = add i32 %62, 2
  %75 = load i32, ptr @hf_rsl_phy_ctx_rx_lvl_ext, align 4
  %76 = call ptr @proto_tree_add_item(ptr noundef %64, i32 noundef %75, ptr noundef %0, i32 noundef %74, i32 noundef 1, i32 noundef 0)
  %77 = add i32 %62, 3
  call void @llvm.lifetime.end.p0(i64 8, ptr nonnull %5) #6
  br label %dissect_phy_ctx_ie.exit

78:                                               ; preds = %25
  call void @llvm.lifetime.start.p0(i64 8, ptr nonnull %4) #6
  %79 = load i32, ptr @ett_phy_ctx_rxlvl_ext, align 4
  %80 = call ptr @proto_tree_add_subtree(ptr noundef %27, ptr noundef %0, i32 noundef %22, i32 noundef 0, i32 noundef %79, ptr noundef nonnull %4, ptr noundef nonnull @.str.772)
  %81 = load i32, ptr @hf_rsl_phy_ctx_ie_id, align 4
  %82 = call ptr @proto_tree_add_item(ptr noundef %80, i32 noundef %81, ptr noundef %0, i32 noundef %22, i32 noundef 1, i32 noundef 0)
  %83 = add i32 %2, 3
  %84 = call zeroext i8 @tvb_get_uint8(ptr noundef %0, i32 noundef %83)
  %85 = zext i8 %84 to i32
  %86 = load ptr, ptr %4, align 8
  %87 = add nuw nsw i32 %85, 2
  call void @proto_item_set_len(ptr noundef %86, i32 noundef %87)
  %88 = load i32, ptr @hf_rsl_ie_length, align 4
  %89 = call ptr @proto_tree_add_item(ptr noundef %80, i32 noundef %88, ptr noundef %0, i32 noundef %83, i32 noundef 1, i32 noundef 0)
  %90 = add i32 %2, 4
  %91 = load i32, ptr @hf_rsl_phy_ctx_rx_lvl_ext, align 4
  %92 = call ptr @proto_tree_add_item(ptr noundef %80, i32 noundef %91, ptr noundef %0, i32 noundef %90, i32 noundef 1, i32 noundef 0)
  %93 = add i32 %2, 5
  call void @llvm.lifetime.end.p0(i64 8, ptr nonnull %4) #6
  br label %dissect_phy_ctx_ie.exit

94:                                               ; preds = %10
  %95 = load i32, ptr @hf_rsl_phy_ctx, align 4
  %96 = call ptr @proto_tree_add_item(ptr noundef %12, i32 noundef %95, ptr noundef %0, i32 noundef %22, i32 noundef %17, i32 noundef 0)
  %97 = add i32 %22, %17
  br label %dissect_phy_ctx_ie.exit

dissect_phy_ctx_ie.exit:                          ; preds = %78, %61, %29, %25, %94, %3
  %.0 = phi i32 [ %2, %3 ], [ %97, %94 ], [ %22, %25 ], [ %93, %78 ], [ %77, %61 ], [ %60, %29 ]
  call void @llvm.lifetime.end.p0(i64 8, ptr nonnull %8) #6
  ret i32 %.0
}